target datalayout = "e-m:e-p270:32:32-p271:32:32-p272:64:64-i64:64-i128:128-f80:128-n8:16:32:64-S128"
target triple = "x86_64-pc-linux-gnu"

%struct.mbedtls_cipher_info_t = type { ptr, i32 }
%struct.mbedtls_cipher_base_t = type { i32, ptr, ptr, ptr, ptr, ptr, ptr, ptr, ptr, ptr, ptr, ptr }
%struct.mbedtls_cipher_context_t = type { ptr, i32, i32, ptr, ptr, [16 x i8], i64, [16 x i8], i64, ptr, ptr }

@mbedtls_cipher_base_lookup_table = external global [0 x ptr], align 8

; Function Attrs: inlinehint nounwind uwtable
define internal ptr @mbedtls_cipher_get_base(ptr noundef %0) #3 {
  %2 = alloca ptr, align 8
  store ptr %0, ptr %2, align 8, !tbaa !26
  %3 = load ptr, ptr %2, align 8, !tbaa !26
  %4 = getelementptr inbounds nuw %struct.mbedtls_cipher_info_t, ptr %3, i32 0, i32 1
  %5 = load i32, ptr %4, align 8
  %6 = lshr i32 %5, 26
  %7 = and i32 %6, 31
  %8 = zext i32 %7 to i64
  %9 = getelementptr inbounds nuw [0 x ptr], ptr @mbedtls_cipher_base_lookup_table, i64 0, i64 %8
  %10 = load ptr, ptr %9, align 8, !tbaa !27
  ret ptr %10
}

; Function Attrs: nounwind uwtable
define hidden void @mbedtls_cipher_free(ptr noundef %0) #0 {
  %2 = alloca ptr, align 8
  store ptr %0, ptr %2, align 8, !tbaa !29
  %3 = load ptr, ptr %2, align 8, !tbaa !29
  %4 = icmp eq ptr %3, null
  br i1 %4, label %5, label %6

5:                                                ; preds = %1
  br label %32

6:                                                ; preds = %1
  %7 = load ptr, ptr %2, align 8, !tbaa !29
  %8 = getelementptr inbounds nuw %struct.mbedtls_cipher_context_t, ptr %7, i32 0, i32 10
  %9 = load ptr, ptr %8, align 8, !tbaa !31
  %10 = icmp ne ptr %9, null
  br i1 %10, label %11, label %15

11:                                               ; preds = %6
  %12 = load ptr, ptr %2, align 8, !tbaa !29
  %13 = getelementptr inbounds nuw %struct.mbedtls_cipher_context_t, ptr %12, i32 0, i32 10
  %14 = load ptr, ptr %13, align 8, !tbaa !31
  call void @mbedtls_zeroize_and_free(ptr noundef %14, i64 noundef 40)
  br label %15

15:                                               ; preds = %11, %6
  %16 = load ptr, ptr %2, align 8, !tbaa !29
  %17 = getelementptr inbounds nuw %struct.mbedtls_cipher_context_t, ptr %16, i32 0, i32 9
  %18 = load ptr, ptr %17, align 8, !tbaa !35
  %19 = icmp ne ptr %18, null
  br i1 %19, label %20, label %30

20:                                               ; preds = %15
  %21 = load ptr, ptr %2, align 8, !tbaa !29
  %22 = getelementptr inbounds nuw %struct.mbedtls_cipher_context_t, ptr %21, i32 0, i32 0
  %23 = load ptr, ptr %22, align 8, !tbaa !36
  %24 = call ptr @mbedtls_cipher_get_base(ptr noundef %23)
  %25 = getelementptr inbounds nuw %struct.mbedtls_cipher_base_t, ptr %24, i32 0, i32 11
  %26 = load ptr, ptr %25, align 8, !tbaa !37
  %27 = load ptr, ptr %2, align 8, !tbaa !29
  %28 = getelementptr inbounds nuw %struct.mbedtls_cipher_context_t, ptr %27, i32 0, i32 9
  %29 = load ptr, ptr %28, align 8, !tbaa !35
  call void %26(ptr noundef %29)
  br label %30

30:                                               ; preds = %20, %15
  %31 = load ptr, ptr %2, align 8, !tbaa !29
  call void @mbedtls_platform_zeroize(ptr noundef %31, i64 noundef 96)
  br label %32

32:                                               ; preds = %30, %5
  ret void
}