; Function Attrs: nounwind uwtable
define hidden void @mbedtls_cipher_free(ptr noundef %0) local_unnamed_addr #8 {
  %2 = icmp eq ptr %0, null
  br i1 %2, label %21, label %3

3:                                                ; preds = %1
  %4 = getelementptr inbounds nuw i8, ptr %0, i64 88
  %5 = load ptr, ptr %4, align 8, !tbaa !24
  %.not = icmp eq ptr %5, null
  br i1 %.not, label %7, label %6

6:                                                ; preds = %3
  tail call void @mbedtls_zeroize_and_free(ptr noundef nonnull %5, i64 noundef 40) #15
  br label %7

7:                                                ; preds = %6, %3
  %8 = getelementptr inbounds nuw i8, ptr %0, i64 80
  %9 = load ptr, ptr %8, align 8, !tbaa !28
  %.not8 = icmp eq ptr %9, null
  br i1 %.not8, label %20, label %10

10:                                               ; preds = %7
  %11 = load ptr, ptr %0, align 8, !tbaa !29
  %12 = getelementptr i8, ptr %11, i64 8
  %.val = load i32, ptr %12, align 8
  %13 = lshr i32 %.val, 26
  %14 = and i32 %13, 31
  %15 = zext nneg i32 %14 to i64
  %16 = getelementptr inbounds nuw [0 x ptr], ptr @mbedtls_cipher_base_lookup_table, i64 0, i64 %15
  %17 = load ptr, ptr %16, align 8, !tbaa !19
  %18 = getelementptr inbounds nuw i8, ptr %17, i64 88
  %19 = load ptr, ptr %18, align 8, !tbaa !30
  tail call void %19(ptr noundef nonnull %9) #15
  br label %20

20:                                               ; preds = %10, %7
  tail call void @mbedtls_platform_zeroize(ptr noundef nonnull %0, i64 noundef 96) #15
  br label %21

21:                                               ; preds = %1, %20
  ret void
}